target datalayout = "e-m:e-p270:32:32-p271:32:32-p272:64:64-i64:64-i128:128-f80:128-n8:16:32:64-S128"
target triple = "x86_64-pc-linux-gnu"

%struct.jit_State = type { %struct.GCtrace, ptr, ptr, ptr, ptr, ptr, ptr, i32, i32, i32, i8, i8, %struct.IRType1, i8, %struct.FoldState, ptr, i32, i32, i32, i32, i32, i32, i32, [1 x i32], [5 x %union.TValue], [3 x %union.TValue], ptr, i32, i32, i32, i32, ptr, ptr, i32, i32, i8, ptr, i32, i32, i16, [101 x i16], [258 x i32], [15 x i32], [16 x ptr], [64 x %struct.HotPenalty], i32, [16 x %struct.BPropEntry], i32, %struct.ScEvEntry, ptr, i32, i32, i32, ptr, i32, i32, ptr, ptr, ptr, i64, i64, %union.TValue, ptr, i32, i32 }
%struct.GCtrace = type { %struct.GCRef, i8, i8, i16, i32, i32, %struct.GCRef, ptr, i32, i32, ptr, ptr, %struct.GCRef, %struct.MRef, i32, i32, ptr, i32, i16, i16, i16, i16, i16, i16, i16, i8, i8, i8, i8 }
%struct.GCRef = type { i64 }
%struct.MRef = type { i64 }
%struct.IRType1 = type { i8 }
%struct.FoldState = type { %union.IRIns, [2 x %union.IRIns], [2 x %union.IRIns] }
%union.IRIns = type { %struct.GCRef }
%struct.HotPenalty = type { %struct.MRef, i16, i16 }
%struct.BPropEntry = type { i16, i16, i32 }
%struct.ScEvEntry = type { %struct.MRef, i16, i16, i16, i16, %struct.IRType1, i8 }
%union.TValue = type { i64 }
%struct.anon.0 = type { i32, %struct.IRType1, i8, i8, i8 }
%struct.anon = type { i16, i16, i16, i16 }

; Function Attrs: alwaysinline nounwind uwtable
define internal void @lj_ir_set_(ptr noundef %0, i16 noundef zeroext %1, i16 noundef zeroext %2, i16 noundef zeroext %3) #6 {
  %5 = alloca ptr, align 8
  %6 = alloca i16, align 2
  %7 = alloca i16, align 2
  %8 = alloca i16, align 2
  store ptr %0, ptr %5, align 8, !tbaa !4
  store i16 %1, ptr %6, align 2, !tbaa !35
  store i16 %2, ptr %7, align 2, !tbaa !35
  store i16 %3, ptr %8, align 2, !tbaa !35
  %9 = load i16, ptr %6, align 2, !tbaa !35
  %10 = load ptr, ptr %5, align 8, !tbaa !4
  %11 = getelementptr inbounds nuw %struct.jit_State, ptr %10, i32 0, i32 14
  %12 = getelementptr inbounds nuw %struct.FoldState, ptr %11, i32 0, i32 0
  %13 = getelementptr inbounds nuw %struct.anon, ptr %12, i32 0, i32 2
  store i16 %9, ptr %13, align 4, !tbaa !29
  %14 = load i16, ptr %7, align 2, !tbaa !35
  %15 = load ptr, ptr %5, align 8, !tbaa !4
  %16 = getelementptr inbounds nuw %struct.jit_State, ptr %15, i32 0, i32 14
  %17 = getelementptr inbounds nuw %struct.FoldState, ptr %16, i32 0, i32 0
  %18 = getelementptr inbounds nuw %struct.anon, ptr %17, i32 0, i32 0
  store i16 %14, ptr %18, align 8, !tbaa !29
  %19 = load i16, ptr %8, align 2, !tbaa !35
  %20 = load ptr, ptr %5, align 8, !tbaa !4
  %21 = getelementptr inbounds nuw %struct.jit_State, ptr %20, i32 0, i32 14
  %22 = getelementptr inbounds nuw %struct.FoldState, ptr %21, i32 0, i32 0
  %23 = getelementptr inbounds nuw %struct.anon, ptr %22, i32 0, i32 1
  store i16 %19, ptr %23, align 2, !tbaa !29
  ret void
}

; Function Attrs: nounwind uwtable
define internal i32 @fold_kfold_strref_snew(ptr noundef %0) #0 {
  %2 = alloca i32, align 4
  %3 = alloca ptr, align 8
  %4 = alloca ptr, align 8
  %5 = alloca i16, align 2
  %6 = alloca i32, align 4
  store ptr %0, ptr %3, align 8, !tbaa !4
  %7 = load ptr, ptr %3, align 8, !tbaa !4
  %8 = getelementptr inbounds nuw %struct.jit_State, ptr %7, i32 0, i32 14
  %9 = getelementptr inbounds nuw %struct.FoldState, ptr %8, i32 0, i32 1
  %10 = getelementptr inbounds [2 x %union.IRIns], ptr %9, i64 0, i64 0
  %11 = getelementptr inbounds nuw %struct.anon.0, ptr %10, i32 0, i32 1
  %12 = getelementptr inbounds nuw %struct.IRType1, ptr %11, i32 0, i32 0
  %13 = load i8, ptr %12, align 4, !tbaa !29
  %14 = zext i8 %13 to i32
  %15 = and i32 %14, 64
  %16 = icmp ne i32 %15, 0
  br i1 %16, label %17, label %18

17:                                               ; preds = %1
  store i32 0, ptr %2, align 4
  br label %103

18:                                               ; preds = %1
  %19 = load ptr, ptr %3, align 8, !tbaa !4
  %20 = getelementptr inbounds nuw %struct.jit_State, ptr %19, i32 0, i32 14
  %21 = getelementptr inbounds nuw %struct.FoldState, ptr %20, i32 0, i32 0
  %22 = getelementptr inbounds nuw %struct.anon, ptr %21, i32 0, i32 1
  %23 = load i16, ptr %22, align 2, !tbaa !29
  %24 = zext i16 %23 to i32
  %25 = icmp slt i32 %24, 32768
  br i1 %25, label %26, label %41

26:                                               ; preds = %18
  %27 = load ptr, ptr %3, align 8, !tbaa !4
  %28 = getelementptr inbounds nuw %struct.jit_State, ptr %27, i32 0, i32 14
  %29 = getelementptr inbounds nuw %struct.FoldState, ptr %28, i32 0, i32 2
  %30 = getelementptr inbounds [2 x %union.IRIns], ptr %29, i64 0, i64 0
  %31 = load i32, ptr %30, align 8, !tbaa !29
  %32 = icmp eq i32 %31, 0
  br i1 %32, label %33, label %41

33:                                               ; preds = %26
  %34 = load ptr, ptr %3, align 8, !tbaa !4
  %35 = getelementptr inbounds nuw %struct.jit_State, ptr %34, i32 0, i32 14
  %36 = getelementptr inbounds nuw %struct.FoldState, ptr %35, i32 0, i32 1
  %37 = getelementptr inbounds [2 x %union.IRIns], ptr %36, i64 0, i64 0
  %38 = getelementptr inbounds nuw %struct.anon, ptr %37, i32 0, i32 0
  %39 = load i16, ptr %38, align 8, !tbaa !29
  %40 = zext i16 %39 to i32
  store i32 %40, ptr %2, align 4
  br label %103

41:                                               ; preds = %26, %18
  call void @llvm.lifetime.start.p0(i64 8, ptr %4) #8
  %42 = load ptr, ptr %3, align 8, !tbaa !4
  %43 = getelementptr inbounds nuw %struct.jit_State, ptr %42, i32 0, i32 0
  %44 = getelementptr inbounds nuw %struct.GCtrace, ptr %43, i32 0, i32 7
  %45 = load ptr, ptr %44, align 8, !tbaa !32
  %46 = load ptr, ptr %3, align 8, !tbaa !4
  %47 = getelementptr inbounds nuw %struct.jit_State, ptr %46, i32 0, i32 14
  %48 = getelementptr inbounds nuw %struct.FoldState, ptr %47, i32 0, i32 1
  %49 = getelementptr inbounds [2 x %union.IRIns], ptr %48, i64 0, i64 0
  %50 = getelementptr inbounds nuw %struct.anon, ptr %49, i32 0, i32 0
  %51 = load i16, ptr %50, align 8, !tbaa !29
  %52 = zext i16 %51 to i64
  %53 = getelementptr inbounds nuw %union.IRIns, ptr %45, i64 %52
  store ptr %53, ptr %4, align 8, !tbaa !38
  %54 = load ptr, ptr %4, align 8, !tbaa !38
  %55 = getelementptr inbounds nuw %struct.anon.0, ptr %54, i32 0, i32 2
  %56 = load i8, ptr %55, align 1, !tbaa !29
  %57 = zext i8 %56 to i32
  %58 = icmp eq i32 %57, 64
  br i1 %58, label %59, label %98

59:                                               ; preds = %41
  call void @llvm.lifetime.start.p0(i64 2, ptr %5) #8
  %60 = load ptr, ptr %4, align 8, !tbaa !38
  %61 = getelementptr inbounds nuw %struct.anon, ptr %60, i32 0, i32 0
  %62 = load i16, ptr %61, align 8, !tbaa !29
  store i16 %62, ptr %5, align 2, !tbaa !35
  %63 = load ptr, ptr %4, align 8, !tbaa !38
  %64 = getelementptr inbounds nuw %struct.anon.0, ptr %63, i32 0, i32 1
  %65 = getelementptr inbounds nuw %struct.IRType1, ptr %64, i32 0, i32 0
  %66 = load i8, ptr %65, align 4, !tbaa !29
  %67 = zext i8 %66 to i32
  %68 = and i32 %67, 64
  %69 = icmp ne i32 %68, 0
  br i1 %69, label %70, label %71

70:                                               ; preds = %59
  store i32 0, ptr %2, align 4
  store i32 1, ptr %6, align 4
  br label %97

71:                                               ; preds = %59
  %72 = load ptr, ptr %3, align 8, !tbaa !4
  %73 = load ptr, ptr %4, align 8, !tbaa !38
  %74 = getelementptr inbounds nuw %struct.anon, ptr %73, i32 0, i32 1
  %75 = load i16, ptr %74, align 2, !tbaa !29
  %76 = load ptr, ptr %3, align 8, !tbaa !4
  %77 = getelementptr inbounds nuw %struct.jit_State, ptr %76, i32 0, i32 14
  %78 = getelementptr inbounds nuw %struct.FoldState, ptr %77, i32 0, i32 0
  %79 = getelementptr inbounds nuw %struct.anon, ptr %78, i32 0, i32 1
  %80 = load i16, ptr %79, align 2, !tbaa !29
  call void @lj_ir_set_(ptr noundef %72, i16 noundef zeroext 10515, i16 noundef zeroext %75, i16 noundef zeroext %80)
  %81 = load ptr, ptr %3, align 8, !tbaa !4
  %82 = call i32 @lj_opt_fold(ptr noundef %81)
  %83 = trunc i32 %82 to i16
  %84 = load ptr, ptr %3, align 8, !tbaa !4
  %85 = getelementptr inbounds nuw %struct.jit_State, ptr %84, i32 0, i32 14
  %86 = getelementptr inbounds nuw %struct.FoldState, ptr %85, i32 0, i32 0
  %87 = getelementptr inbounds nuw %struct.anon, ptr %86, i32 0, i32 1
  store i16 %83, ptr %87, align 2, !tbaa !29
  %88 = load i16, ptr %5, align 2, !tbaa !35
  %89 = load ptr, ptr %3, align 8, !tbaa !4
  %90 = getelementptr inbounds nuw %struct.jit_State, ptr %89, i32 0, i32 14
  %91 = getelementptr inbounds nuw %struct.FoldState, ptr %90, i32 0, i32 0
  %92 = getelementptr inbounds nuw %struct.anon, ptr %91, i32 0, i32 0
  store i16 %88, ptr %92, align 8, !tbaa !29
  %93 = load ptr, ptr %3, align 8, !tbaa !4
  %94 = getelementptr inbounds nuw %struct.jit_State, ptr %93, i32 0, i32 14
  %95 = getelementptr inbounds nuw %struct.FoldState, ptr %94, i32 0, i32 0
  %96 = getelementptr inbounds nuw %struct.anon, ptr %95, i32 0, i32 2
  store i16 16393, ptr %96, align 4, !tbaa !29
  store i32 1, ptr %2, align 4
  store i32 1, ptr %6, align 4
  br label %97

97:                                               ; preds = %71, %70
  call void @llvm.lifetime.end.p0(i64 2, ptr %5) #8
  br label %99

98:                                               ; preds = %41
  store i32 0, ptr %6, align 4
  br label %99

99:                                               ; preds = %98, %97
  call void @llvm.lifetime.end.p0(i64 8, ptr %4) #8
  %100 = load i32, ptr %6, align 4
  switch i32 %100, label %105 [
    i32 0, label %101
    i32 1, label %103
  ]

101:                                              ; preds = %99
  br label %102

102:                                              ; preds = %101
  store i32 0, ptr %2, align 4
  br label %103

103:                                              ; preds = %102, %99, %33, %17
  %104 = load i32, ptr %2, align 4
  ret i32 %104

105:                                              ; preds = %99
  unreachable
}