; Function Attrs: nounwind uwtable
define internal range(i32 0, 65536) i32 @fold_kfold_strref_snew(ptr noundef %0) #0 {
  %2 = getelementptr inbounds nuw i8, ptr %0, i64 184
  %3 = getelementptr inbounds nuw i8, ptr %0, i64 192
  %4 = getelementptr inbounds nuw i8, ptr %0, i64 196
  %5 = load i8, ptr %4, align 4, !tbaa !28
  %6 = and i8 %5, 64
  %.not = icmp eq i8 %6, 0
  br i1 %.not, label %7, label %37

7:                                                ; preds = %1
  %8 = getelementptr inbounds nuw i8, ptr %0, i64 186
  %9 = load i16, ptr %8, align 2, !tbaa !28
  %10 = icmp sgt i16 %9, -1
  br i1 %10, label %11, label %18

11:                                               ; preds = %7
  %12 = getelementptr inbounds nuw i8, ptr %0, i64 208
  %13 = load i32, ptr %12, align 8, !tbaa !28
  %14 = icmp eq i32 %13, 0
  br i1 %14, label %15, label %18

15:                                               ; preds = %11
  %16 = load i16, ptr %3, align 8, !tbaa !28
  %17 = zext i16 %16 to i32
  br label %37

18:                                               ; preds = %11, %7
  %19 = getelementptr inbounds nuw i8, ptr %0, i64 32
  %20 = load ptr, ptr %19, align 8, !tbaa !30
  %21 = load i16, ptr %3, align 8, !tbaa !28
  %22 = zext i16 %21 to i64
  %23 = getelementptr inbounds nuw %union.IRIns, ptr %20, i64 %22
  %24 = getelementptr inbounds nuw i8, ptr %23, i64 5
  %25 = load i8, ptr %24, align 1, !tbaa !28
  %.not21 = icmp eq i8 %25, 64
  br i1 %.not21, label %26, label %37

26:                                               ; preds = %18
  %27 = getelementptr inbounds nuw i8, ptr %23, i64 4
  %28 = load i8, ptr %27, align 4, !tbaa !28
  %29 = and i8 %28, 64
  %.not20 = icmp eq i8 %29, 0
  br i1 %.not20, label %30, label %37

30:                                               ; preds = %26
  %31 = load i16, ptr %23, align 8, !tbaa !28
  %32 = getelementptr inbounds nuw i8, ptr %23, i64 2
  %33 = load i16, ptr %32, align 2, !tbaa !28
  %34 = getelementptr inbounds nuw i8, ptr %0, i64 188
  store i16 10515, ptr %34, align 4, !tbaa !28
  store i16 %33, ptr %2, align 8, !tbaa !28
  %35 = tail call i32 @lj_opt_fold(ptr noundef nonnull %0)
  %36 = trunc i32 %35 to i16
  store i16 %36, ptr %8, align 2, !tbaa !28
  store i16 %31, ptr %2, align 8, !tbaa !28
  store i16 16393, ptr %34, align 4, !tbaa !28
  br label %37

37:                                               ; preds = %26, %30, %18, %1, %15
  %.018 = phi i32 [ %17, %15 ], [ 0, %1 ], [ 1, %30 ], [ 0, %26 ], [ 0, %18 ]
  ret i32 %.018
}